
inputs/subr:     file format elf32-littleriscv


Disassembly of section .text:

00010074 <main>:
   10074:	fe010113          	addi	sp,sp,-32
   10078:	00112e23          	sw	ra,28(sp)
   1007c:	00812c23          	sw	s0,24(sp)
   10080:	02010413          	addi	s0,sp,32
   10084:	0015c7b7          	lui	a5,0x15c
   10088:	bc478793          	addi	a5,a5,-1084 # 15bbc4 <__global_pointer$+0x14a2a4>
   1008c:	fef42623          	sw	a5,-20(s0)
   10090:	000337b7          	lui	a5,0x33
   10094:	27578793          	addi	a5,a5,629 # 33275 <__global_pointer$+0x21955>
   10098:	fef42423          	sw	a5,-24(s0)
   1009c:	fe842583          	lw	a1,-24(s0)
   100a0:	fec42503          	lw	a0,-20(s0)
   100a4:	038000ef          	jal	ra,100dc <func>
   100a8:	fea42223          	sw	a0,-28(s0)
   100ac:	fe442703          	lw	a4,-28(s0)
   100b0:	fec42783          	lw	a5,-20(s0)
   100b4:	00f707b3          	add	a5,a4,a5
   100b8:	fe842703          	lw	a4,-24(s0)
   100bc:	00f777b3          	and	a5,a4,a5
   100c0:	fef42223          	sw	a5,-28(s0)
   100c4:	00000793          	li	a5,0
   100c8:	00078513          	mv	a0,a5
   100cc:	01c12083          	lw	ra,28(sp)
   100d0:	01812403          	lw	s0,24(sp)
   100d4:	02010113          	addi	sp,sp,32
   100d8:	00008067          	ret

000100dc <func>:
   100dc:	fd010113          	addi	sp,sp,-48
   100e0:	02812623          	sw	s0,44(sp)
   100e4:	03010413          	addi	s0,sp,48
   100e8:	fca42e23          	sw	a0,-36(s0)
   100ec:	fcb42c23          	sw	a1,-40(s0)
   100f0:	fdc42703          	lw	a4,-36(s0)
   100f4:	fd842783          	lw	a5,-40(s0)
   100f8:	00f747b3          	xor	a5,a4,a5
   100fc:	fef42623          	sw	a5,-20(s0)
   10100:	fec42783          	lw	a5,-20(s0)
   10104:	00279793          	slli	a5,a5,0x2
   10108:	fef42623          	sw	a5,-20(s0)
   1010c:	fec42783          	lw	a5,-20(s0)
   10110:	00078513          	mv	a0,a5
   10114:	02c12403          	lw	s0,44(sp)
   10118:	03010113          	addi	sp,sp,48
   1011c:	00008067          	ret
